target datalayout = "e-m:e-p270:32:32-p271:32:32-p272:64:64-i64:64-i128:128-f80:128-n8:16:32:64-S128"
target triple = "x86_64-pc-linux-gnu"

%struct.AVFilterContext = type { ptr, ptr, ptr, ptr, ptr, i32, ptr, ptr, i32, ptr, ptr, i32, i32, ptr, ptr, ptr, ptr, i32, ptr, i32, i32 }
%struct.FFFilterContext = type { %struct.AVFilterContext, ptr, i32, i32, ptr, ptr, ptr }
%struct.FilterLinkInternal = type { %struct.FilterLink, ptr, %struct.FFFrameQueue, i32, i32, i64, i32, i32, i32, i32 }
%struct.FilterLink = type { %struct.AVFilterLink, ptr, i64, i64, i32, i32, i64, i64, i64, i64, %struct.AVRational, ptr }
%struct.AVFilterLink = type { ptr, ptr, ptr, ptr, i32, i32, i32, i32, %struct.AVRational, i32, i32, i32, %struct.AVChannelLayout, %struct.AVRational, ptr, i32, %struct.AVFilterFormatsConfig, %struct.AVFilterFormatsConfig }
%struct.AVChannelLayout = type { i32, i32, %union.anon.0, ptr }
%union.anon.0 = type { i64 }
%struct.AVFilterFormatsConfig = type { ptr, ptr, ptr, ptr, ptr }
%struct.AVRational = type { i32, i32 }
%struct.FFFrameQueue = type { ptr, i64, i64, i64, %struct.FFFrameBucket, i64, i64, i64, i64, i32 }
%struct.FFFrameBucket = type { ptr }

@.str = private unnamed_addr constant [30 x i8] c"Assertion %s failed at %s:%d\0A\00", align 1
@.str.2 = private unnamed_addr constant [23 x i8] c"libavfilter/avfilter.c\00", align 1
@.str.8 = private unnamed_addr constant [15 x i8] c"!li->status_in\00", align 1

; Function Attrs: inlinehint nounwind uwtable
define internal ptr @fffilterctx(ptr noundef %0) #4 {
  %2 = alloca ptr, align 8
  store ptr %0, ptr %2, align 8, !tbaa !4
  %3 = load ptr, ptr %2, align 8, !tbaa !4
  ret ptr %3
}

; Function Attrs: nounwind uwtable
define void @ff_filter_set_ready(ptr noundef %0, i32 noundef %1) #0 {
  %3 = alloca ptr, align 8
  %4 = alloca i32, align 4
  %5 = alloca ptr, align 8
  store ptr %0, ptr %3, align 8, !tbaa !4
  store i32 %1, ptr %4, align 4, !tbaa !19
  call void @llvm.lifetime.start.p0(i64 8, ptr %5) #11
  %6 = load ptr, ptr %3, align 8, !tbaa !4
  %7 = call ptr @fffilterctx(ptr noundef %6)
  store ptr %7, ptr %5, align 8, !tbaa !74
  %8 = load ptr, ptr %5, align 8, !tbaa !74
  %9 = getelementptr inbounds nuw %struct.FFFilterContext, ptr %8, i32 0, i32 3
  %10 = load i32, ptr %9, align 4, !tbaa !76
  %11 = load i32, ptr %4, align 4, !tbaa !19
  %12 = icmp ugt i32 %10, %11
  br i1 %12, label %13, label %17

13:                                               ; preds = %2
  %14 = load ptr, ptr %5, align 8, !tbaa !74
  %15 = getelementptr inbounds nuw %struct.FFFilterContext, ptr %14, i32 0, i32 3
  %16 = load i32, ptr %15, align 4, !tbaa !76
  br label %19

17:                                               ; preds = %2
  %18 = load i32, ptr %4, align 4, !tbaa !19
  br label %19

19:                                               ; preds = %17, %13
  %20 = phi i32 [ %16, %13 ], [ %18, %17 ]
  %21 = load ptr, ptr %5, align 8, !tbaa !74
  %22 = getelementptr inbounds nuw %struct.FFFilterContext, ptr %21, i32 0, i32 3
  store i32 %20, ptr %22, align 4, !tbaa !76
  call void @llvm.lifetime.end.p0(i64 8, ptr %5) #11
  ret void
}

; Function Attrs: nounwind uwtable
define internal void @filter_unblock(ptr noundef %0) #0 {
  %2 = alloca ptr, align 8
  %3 = alloca i32, align 4
  %4 = alloca ptr, align 8
  store ptr %0, ptr %2, align 8, !tbaa !4
  call void @llvm.lifetime.start.p0(i64 4, ptr %3) #11
  store i32 0, ptr %3, align 4, !tbaa !19
  br label %5

5:                                                ; preds = %22, %1
  %6 = load i32, ptr %3, align 4, !tbaa !19
  %7 = load ptr, ptr %2, align 8, !tbaa !4
  %8 = getelementptr inbounds nuw %struct.AVFilterContext, ptr %7, i32 0, i32 8
  %9 = load i32, ptr %8, align 8, !tbaa !36
  %10 = icmp ult i32 %6, %9
  br i1 %10, label %11, label %25

11:                                               ; preds = %5
  call void @llvm.lifetime.start.p0(i64 8, ptr %4) #11
  %12 = load ptr, ptr %2, align 8, !tbaa !4
  %13 = getelementptr inbounds nuw %struct.AVFilterContext, ptr %12, i32 0, i32 7
  %14 = load ptr, ptr %13, align 8, !tbaa !38
  %15 = load i32, ptr %3, align 4, !tbaa !19
  %16 = zext i32 %15 to i64
  %17 = getelementptr inbounds nuw ptr, ptr %14, i64 %16
  %18 = load ptr, ptr %17, align 8, !tbaa !26
  %19 = call ptr @ff_link_internal(ptr noundef %18)
  store ptr %19, ptr %4, align 8, !tbaa !47
  %20 = load ptr, ptr %4, align 8, !tbaa !47
  %21 = getelementptr inbounds nuw %struct.FilterLinkInternal, ptr %20, i32 0, i32 3
  store i32 0, ptr %21, align 8, !tbaa !81
  call void @llvm.lifetime.end.p0(i64 8, ptr %4) #11
  br label %22

22:                                               ; preds = %11
  %23 = load i32, ptr %3, align 4, !tbaa !19
  %24 = add i32 %23, 1
  store i32 %24, ptr %3, align 4, !tbaa !19
  br label %5, !llvm.loop !82

25:                                               ; preds = %5
  call void @llvm.lifetime.end.p0(i64 4, ptr %3) #11
  ret void
}

; Function Attrs: inlinehint nounwind uwtable
define internal ptr @ff_link_internal(ptr noundef %0) #4 {
  %2 = alloca ptr, align 8
  store ptr %0, ptr %2, align 8, !tbaa !26
  %3 = load ptr, ptr %2, align 8, !tbaa !26
  ret ptr %3
}

; Function Attrs: nounwind uwtable
define void @ff_avfilter_link_set_in_status(ptr noundef %0, i32 noundef %1, i64 noundef %2) #0 {
  %4 = alloca ptr, align 8
  %5 = alloca i32, align 4
  %6 = alloca i64, align 8
  %7 = alloca ptr, align 8
  %8 = alloca i32, align 4
  store ptr %0, ptr %4, align 8, !tbaa !26
  store i32 %1, ptr %5, align 4, !tbaa !19
  store i64 %2, ptr %6, align 8, !tbaa !77
  call void @llvm.lifetime.start.p0(i64 8, ptr %7) #11
  %9 = load ptr, ptr %4, align 8, !tbaa !26
  %10 = call ptr @ff_link_internal(ptr noundef %9)
  store ptr %10, ptr %7, align 8, !tbaa !47
  %11 = load ptr, ptr %7, align 8, !tbaa !47
  %12 = getelementptr inbounds nuw %struct.FilterLinkInternal, ptr %11, i32 0, i32 4
  %13 = load i32, ptr %12, align 4, !tbaa !78
  %14 = load i32, ptr %5, align 4, !tbaa !19
  %15 = icmp eq i32 %13, %14
  br i1 %15, label %16, label %17

16:                                               ; preds = %3
  store i32 1, ptr %8, align 4
  br label %43

17:                                               ; preds = %3
  br label %18

18:                                               ; preds = %17
  %19 = load ptr, ptr %7, align 8, !tbaa !47
  %20 = getelementptr inbounds nuw %struct.FilterLinkInternal, ptr %19, i32 0, i32 4
  %21 = load i32, ptr %20, align 4, !tbaa !78
  %22 = icmp ne i32 %21, 0
  br i1 %22, label %23, label %24

23:                                               ; preds = %18
  call void (ptr, i32, ptr, ...) @av_log(ptr noundef null, i32 noundef 0, ptr noundef @.str, ptr noundef @.str.8, ptr noundef @.str.2, i32 noundef 256)
  call void @abort() #12
  unreachable

24:                                               ; preds = %18
  br label %25

25:                                               ; preds = %24
  br label %26

26:                                               ; preds = %25
  %27 = load i32, ptr %5, align 4, !tbaa !19
  %28 = load ptr, ptr %7, align 8, !tbaa !47
  %29 = getelementptr inbounds nuw %struct.FilterLinkInternal, ptr %28, i32 0, i32 4
  store i32 %27, ptr %29, align 4, !tbaa !78
  %30 = load i64, ptr %6, align 8, !tbaa !77
  %31 = load ptr, ptr %7, align 8, !tbaa !47
  %32 = getelementptr inbounds nuw %struct.FilterLinkInternal, ptr %31, i32 0, i32 5
  store i64 %30, ptr %32, align 8, !tbaa !79
  %33 = load ptr, ptr %7, align 8, !tbaa !47
  %34 = getelementptr inbounds nuw %struct.FilterLinkInternal, ptr %33, i32 0, i32 7
  store i32 0, ptr %34, align 4, !tbaa !80
  %35 = load ptr, ptr %7, align 8, !tbaa !47
  %36 = getelementptr inbounds nuw %struct.FilterLinkInternal, ptr %35, i32 0, i32 3
  store i32 0, ptr %36, align 8, !tbaa !81
  %37 = load ptr, ptr %4, align 8, !tbaa !26
  %38 = getelementptr inbounds nuw %struct.AVFilterLink, ptr %37, i32 0, i32 2
  %39 = load ptr, ptr %38, align 8, !tbaa !57
  call void @filter_unblock(ptr noundef %39)
  %40 = load ptr, ptr %4, align 8, !tbaa !26
  %41 = getelementptr inbounds nuw %struct.AVFilterLink, ptr %40, i32 0, i32 2
  %42 = load ptr, ptr %41, align 8, !tbaa !57
  call void @ff_filter_set_ready(ptr noundef %42, i32 noundef 200)
  store i32 0, ptr %8, align 4
  br label %43

43:                                               ; preds = %26, %16
  call void @llvm.lifetime.end.p0(i64 8, ptr %7) #11
  %44 = load i32, ptr %8, align 4
  switch i32 %44, label %46 [
    i32 0, label %45
    i32 1, label %45
  ]

45:                                               ; preds = %43, %43
  ret void

46:                                               ; preds = %43
  unreachable
}