; Function Attrs: nounwind uwtable
define void @ff_avfilter_link_set_in_status(ptr noundef captures(none) %0, i32 noundef %1, i64 noundef %2) local_unnamed_addr #0 {
  %4 = getelementptr inbounds nuw i8, ptr %0, i64 372
  %5 = load i32, ptr %4, align 4, !tbaa !63
  %6 = icmp eq i32 %5, %1
  br i1 %6, label %25, label %7

7:                                                ; preds = %3
  %.not = icmp eq i32 %5, 0
  br i1 %.not, label %9, label %8

8:                                                ; preds = %7
  tail call void (ptr, i32, ptr, ...) @av_log(ptr noundef null, i32 noundef 0, ptr noundef nonnull @.str, ptr noundef nonnull @.str.8, ptr noundef nonnull @.str.2, i32 noundef 256) #15
  tail call void @abort() #16
  unreachable

9:                                                ; preds = %7
  store i32 %1, ptr %4, align 4, !tbaa !63
  %10 = getelementptr inbounds nuw i8, ptr %0, i64 376
  store i64 %2, ptr %10, align 8, !tbaa !64
  %11 = getelementptr inbounds nuw i8, ptr %0, i64 388
  store i32 0, ptr %11, align 4, !tbaa !65
  %12 = getelementptr inbounds nuw i8, ptr %0, i64 368
  store i32 0, ptr %12, align 8, !tbaa !66
  %13 = getelementptr inbounds nuw i8, ptr %0, i64 16
  %14 = load ptr, ptr %13, align 8, !tbaa !47
  %15 = getelementptr inbounds nuw i8, ptr %14, i64 64
  %16 = load i32, ptr %15, align 8, !tbaa !27
  %.not.i = icmp eq i32 %16, 0
  br i1 %.not.i, label %filter_unblock.exit, label %.lr.ph.i

.lr.ph.i:                                         ; preds = %9
  %17 = getelementptr inbounds nuw i8, ptr %14, i64 56
  %18 = load ptr, ptr %17, align 8, !tbaa !29
  %wide.trip.count.i = zext i32 %16 to i64
  br label %19

19:                                               ; preds = %19, %.lr.ph.i
  %indvars.iv.i = phi i64 [ 0, %.lr.ph.i ], [ %indvars.iv.next.i, %19 ]
  %20 = getelementptr inbounds nuw ptr, ptr %18, i64 %indvars.iv.i
  %21 = load ptr, ptr %20, align 8, !tbaa !17
  %22 = getelementptr inbounds nuw i8, ptr %21, i64 368
  store i32 0, ptr %22, align 8, !tbaa !66
  %indvars.iv.next.i = add nuw nsw i64 %indvars.iv.i, 1
  %exitcond.not.i = icmp eq i64 %indvars.iv.next.i, %wide.trip.count.i
  br i1 %exitcond.not.i, label %filter_unblock.exit, label %19, !llvm.loop !67

filter_unblock.exit:                              ; preds = %19, %9
  %23 = getelementptr inbounds nuw i8, ptr %14, i64 164
  %24 = load i32, ptr %23, align 4, !tbaa !62
  %..i = tail call i32 @llvm.umax.i32(i32 %24, i32 200)
  store i32 %..i, ptr %23, align 4, !tbaa !62
  br label %25

25:                                               ; preds = %3, %filter_unblock.exit
  ret void
}